target datalayout = "e-m:e-p270:32:32-p271:32:32-p272:64:64-i64:64-i128:128-f80:128-n8:16:32:64-S128"
target triple = "x86_64-unknown-linux-gnu"

%"class.std::__cxx11::basic_string" = type { %"struct.std::__cxx11::basic_string<char>::_Alloc_hider", i64, %union.anon }
%"struct.std::__cxx11::basic_string<char>::_Alloc_hider" = type { ptr }
%union.anon = type { i64, [8 x i8] }
%"class.std::__shared_count" = type { ptr }
%"class.std::function" = type { %"class.std::_Function_base", ptr }
%"class.std::_Function_base" = type { %"union.std::_Any_data", ptr }
%"union.std::_Any_data" = type { %"union.std::_Nocopy_types" }
%"union.std::_Nocopy_types" = type { { i64, i64 } }
%"class.std::function.38" = type { %"class.std::_Function_base", ptr }
%"class.std::shared_ptr.18" = type { %"class.std::__shared_ptr.19" }
%"class.std::__shared_ptr.19" = type { ptr, %"class.std::__shared_count" }
%"class.std::function.168" = type { %"class.std::_Function_base", ptr }
%"class.hermes::vm::RuntimeConfig" = type <{ %"class.hermes::vm::GCConfig", ptr, i32, i32, i8, i8, i8, i8, i8, i8, i8, i8, i8, i8, i8, [5 x i8], %"class.std::__cxx11::basic_string", %"class.std::__cxx11::basic_string", %"class.std::function.411", i8, i8, i8, i8, i32, i8, i8, i8, i8, i32, i8, [7 x i8], %"class.std::shared_ptr.18", i32, i8, [3 x i8] }>
%"class.hermes::vm::GCConfig" = type { i32, i32, i32, double, i32, %"class.hermes::vm::GCSanitizeConfig", i8, i32, %"class.std::__cxx11::basic_string", %"class.hermes::vm::GCTripwireConfig", i8, i8, i8, i8, %"class.std::function", %"class.std::function.168" }
%"class.hermes::vm::GCSanitizeConfig" = type { double, i64 }
%"class.hermes::vm::GCTripwireConfig" = type { i32, %"class.std::function.38" }
%"class.std::function.411" = type { %"class.std::_Function_base", ptr }
%"class.hermes::vm::RuntimeConfig::Builder" = type { %"class.hermes::vm::RuntimeConfig", i8, i8, i8, i8, i8, i8, i8, i8, i8, i8, i8, i8, i8, i8, i8, i8, i8, i8, i8, i8, i8, i8, i8, i8, i8, i8, i8, i8, i8, i8, [2 x i8] }

; Function Attrs: mustprogress nounwind uwtable
define linkonce_odr hidden void @_ZN6hermes2vm13RuntimeConfig7doBuildERKNS1_7BuilderE(ptr noundef nonnull align 8 dereferenceable(373) %this, ptr noundef nonnull align 8 dereferenceable(406) %builder) #1 comdat align 2 {
entry:
  %this.addr = alloca ptr, align 8
  %builder.addr = alloca ptr, align 8
  store ptr %this, ptr %this.addr, align 8
  store ptr %builder, ptr %builder.addr, align 8
  ret void
}

; Function Attrs: mustprogress nounwind uwtable
define linkonce_odr hidden void @_ZN6hermes2vm13RuntimeConfig7BuilderD2Ev(ptr noundef nonnull align 8 dereferenceable(406) %this) unnamed_addr #1 comdat align 2 {
entry:
  %this.addr = alloca ptr, align 8
  store ptr %this, ptr %this.addr, align 8
  %this1 = load ptr, ptr %this.addr, align 8
  %config_ = getelementptr inbounds %"class.hermes::vm::RuntimeConfig::Builder", ptr %this1, i32 0, i32 0
  call void @_ZN6hermes2vm13RuntimeConfigD2Ev(ptr noundef nonnull align 8 dereferenceable(373) %config_) #19
  ret void
}

; Function Attrs: mustprogress uwtable
define linkonce_odr hidden void @_ZN6hermes2vm13RuntimeConfig7Builder5buildEv(ptr noalias sret(%"class.hermes::vm::RuntimeConfig") align 8 %agg.result, ptr noundef nonnull align 8 dereferenceable(406) %this) #0 comdat align 2 {
entry:
  %result.ptr = alloca ptr, align 8
  %this.addr = alloca ptr, align 8
  store ptr %agg.result, ptr %result.ptr, align 8
  store ptr %this, ptr %this.addr, align 8
  %this1 = load ptr, ptr %this.addr, align 8
  %config_ = getelementptr inbounds %"class.hermes::vm::RuntimeConfig::Builder", ptr %this1, i32 0, i32 0
  call void @_ZN6hermes2vm13RuntimeConfig7doBuildERKNS1_7BuilderE(ptr noundef nonnull align 8 dereferenceable(373) %config_, ptr noundef nonnull align 8 dereferenceable(406) %this1)
  %config_2 = getelementptr inbounds %"class.hermes::vm::RuntimeConfig::Builder", ptr %this1, i32 0, i32 0
  call void @_ZN6hermes2vm13RuntimeConfigC2ERKS1_(ptr noundef nonnull align 8 dereferenceable(373) %agg.result, ptr noundef nonnull align 8 dereferenceable(373) %config_2)
  ret void
}

; Function Attrs: mustprogress nounwind uwtable
define linkonce_odr hidden noundef nonnull align 8 dereferenceable(406) ptr @_ZN6hermes2vm13RuntimeConfig7Builder25withAsyncBreakCheckInEvalEb(ptr noundef nonnull align 8 dereferenceable(406) %this, i1 noundef zeroext %AsyncBreakCheckInEval) #1 comdat align 2 {
entry:
  %this.addr = alloca ptr, align 8
  %AsyncBreakCheckInEval.addr = alloca i8, align 1
  store ptr %this, ptr %this.addr, align 8
  %frombool = zext i1 %AsyncBreakCheckInEval to i8
  store i8 %frombool, ptr %AsyncBreakCheckInEval.addr, align 1
  %this1 = load ptr, ptr %this.addr, align 8
  %0 = load i8, ptr %AsyncBreakCheckInEval.addr, align 1
  %tobool = trunc i8 %0 to i1
  %config_ = getelementptr inbounds %"class.hermes::vm::RuntimeConfig::Builder", ptr %this1, i32 0, i32 0
  %AsyncBreakCheckInEval_ = getelementptr inbounds %"class.hermes::vm::RuntimeConfig", ptr %config_, i32 0, i32 7
  %frombool2 = zext i1 %tobool to i8
  store i8 %frombool2, ptr %AsyncBreakCheckInEval_, align 1
  %AsyncBreakCheckInEvalExplicit_ = getelementptr inbounds %"class.hermes::vm::RuntimeConfig::Builder", ptr %this1, i32 0, i32 8
  store i8 1, ptr %AsyncBreakCheckInEvalExplicit_, align 1
  ret ptr %this1
}

; Function Attrs: mustprogress nounwind uwtable
define linkonce_odr hidden noundef nonnull align 8 dereferenceable(406) ptr @_ZN6hermes2vm13RuntimeConfig7Builder25withRandomizeMemoryLayoutEb(ptr noundef nonnull align 8 dereferenceable(406) %this, i1 noundef zeroext %RandomizeMemoryLayout) #1 comdat align 2 {
entry:
  %this.addr = alloca ptr, align 8
  %RandomizeMemoryLayout.addr = alloca i8, align 1
  store ptr %this, ptr %this.addr, align 8
  %frombool = zext i1 %RandomizeMemoryLayout to i8
  store i8 %frombool, ptr %RandomizeMemoryLayout.addr, align 1
  %this1 = load ptr, ptr %this.addr, align 8
  %0 = load i8, ptr %RandomizeMemoryLayout.addr, align 1
  %tobool = trunc i8 %0 to i1
  %config_ = getelementptr inbounds %"class.hermes::vm::RuntimeConfig::Builder", ptr %this1, i32 0, i32 0
  %RandomizeMemoryLayout_ = getelementptr inbounds %"class.hermes::vm::RuntimeConfig", ptr %config_, i32 0, i32 21
  %frombool2 = zext i1 %tobool to i8
  store i8 %frombool2, ptr %RandomizeMemoryLayout_, align 2
  %RandomizeMemoryLayoutExplicit_ = getelementptr inbounds %"class.hermes::vm::RuntimeConfig::Builder", ptr %this1, i32 0, i32 21
  store i8 1, ptr %RandomizeMemoryLayoutExplicit_, align 4
  ret ptr %this1
}

; Function Attrs: mustprogress nounwind uwtable
define linkonce_odr hidden noundef nonnull align 8 dereferenceable(406) ptr @_ZN6hermes2vm13RuntimeConfig7Builder35withEnableHermesInternalTestMethodsEb(ptr noundef nonnull align 8 dereferenceable(406) %this, i1 noundef zeroext %EnableHermesInternalTestMethods) #1 comdat align 2 {
entry:
  %this.addr = alloca ptr, align 8
  %EnableHermesInternalTestMethods.addr = alloca i8, align 1
  store ptr %this, ptr %this.addr, align 8
  %frombool = zext i1 %EnableHermesInternalTestMethods to i8
  store i8 %frombool, ptr %EnableHermesInternalTestMethods.addr, align 1
  %this1 = load ptr, ptr %this.addr, align 8
  %0 = load i8, ptr %EnableHermesInternalTestMethods.addr, align 1
  %tobool = trunc i8 %0 to i1
  %config_ = getelementptr inbounds %"class.hermes::vm::RuntimeConfig::Builder", ptr %this1, i32 0, i32 0
  %EnableHermesInternalTestMethods_ = getelementptr inbounds %"class.hermes::vm::RuntimeConfig", ptr %config_, i32 0, i32 26
  %frombool2 = zext i1 %tobool to i8
  store i8 %frombool2, ptr %EnableHermesInternalTestMethods_, align 2
  %EnableHermesInternalTestMethodsExplicit_ = getelementptr inbounds %"class.hermes::vm::RuntimeConfig::Builder", ptr %this1, i32 0, i32 25
  store i8 1, ptr %EnableHermesInternalTestMethodsExplicit_, align 8
  ret ptr %this1
}

; Function Attrs: mustprogress nounwind uwtable
define linkonce_odr hidden noundef nonnull align 8 dereferenceable(406) ptr @_ZN6hermes2vm13RuntimeConfig7Builder24withEnableHermesInternalEb(ptr noundef nonnull align 8 dereferenceable(406) %this, i1 noundef zeroext %EnableHermesInternal) #1 comdat align 2 {
entry:
  %this.addr = alloca ptr, align 8
  %EnableHermesInternal.addr = alloca i8, align 1
  store ptr %this, ptr %this.addr, align 8
  %frombool = zext i1 %EnableHermesInternal to i8
  store i8 %frombool, ptr %EnableHermesInternal.addr, align 1
  %this1 = load ptr, ptr %this.addr, align 8
  %0 = load i8, ptr %EnableHermesInternal.addr, align 1
  %tobool = trunc i8 %0 to i1
  %config_ = getelementptr inbounds %"class.hermes::vm::RuntimeConfig::Builder", ptr %this1, i32 0, i32 0
  %EnableHermesInternal_ = getelementptr inbounds %"class.hermes::vm::RuntimeConfig", ptr %config_, i32 0, i32 25
  %frombool2 = zext i1 %tobool to i8
  store i8 %frombool2, ptr %EnableHermesInternal_, align 1
  %EnableHermesInternalExplicit_ = getelementptr inbounds %"class.hermes::vm::RuntimeConfig::Builder", ptr %this1, i32 0, i32 24
  store i8 1, ptr %EnableHermesInternalExplicit_, align 1
  ret ptr %this1
}

; Function Attrs: mustprogress nounwind uwtable
define linkonce_odr hidden noundef nonnull align 8 dereferenceable(406) ptr @_ZN6hermes2vm13RuntimeConfig7Builder12withES6ProxyEb(ptr noundef nonnull align 8 dereferenceable(406) %this, i1 noundef zeroext %ES6Proxy) #1 comdat align 2 {
entry:
  %this.addr = alloca ptr, align 8
  %ES6Proxy.addr = alloca i8, align 1
  store ptr %this, ptr %this.addr, align 8
  %frombool = zext i1 %ES6Proxy to i8
  store i8 %frombool, ptr %ES6Proxy.addr, align 1
  %this1 = load ptr, ptr %this.addr, align 8
  %0 = load i8, ptr %ES6Proxy.addr, align 1
  %tobool = trunc i8 %0 to i1
  %config_ = getelementptr inbounds %"class.hermes::vm::RuntimeConfig::Builder", ptr %this1, i32 0, i32 0
  %ES6Proxy_ = getelementptr inbounds %"class.hermes::vm::RuntimeConfig", ptr %config_, i32 0, i32 9
  %frombool2 = zext i1 %tobool to i8
  store i8 %frombool2, ptr %ES6Proxy_, align 1
  %ES6ProxyExplicit_ = getelementptr inbounds %"class.hermes::vm::RuntimeConfig::Builder", ptr %this1, i32 0, i32 10
  store i8 1, ptr %ES6ProxyExplicit_, align 1
  ret ptr %this1
}

; Function Attrs: mustprogress nounwind uwtable
define linkonce_odr hidden noundef nonnull align 8 dereferenceable(406) ptr @_ZN6hermes2vm13RuntimeConfig7Builder15withArrayBufferEb(ptr noundef nonnull align 8 dereferenceable(406) %this, i1 noundef zeroext %ArrayBuffer) #1 comdat align 2 {
entry:
  %this.addr = alloca ptr, align 8
  %ArrayBuffer.addr = alloca i8, align 1
  store ptr %this, ptr %this.addr, align 8
  %frombool = zext i1 %ArrayBuffer to i8
  store i8 %frombool, ptr %ArrayBuffer.addr, align 1
  %this1 = load ptr, ptr %this.addr, align 8
  %0 = load i8, ptr %ArrayBuffer.addr, align 1
  %tobool = trunc i8 %0 to i1
  %config_ = getelementptr inbounds %"class.hermes::vm::RuntimeConfig::Builder", ptr %this1, i32 0, i32 0
  %ArrayBuffer_ = getelementptr inbounds %"class.hermes::vm::RuntimeConfig", ptr %config_, i32 0, i32 12
  %frombool2 = zext i1 %tobool to i8
  store i8 %frombool2, ptr %ArrayBuffer_, align 8
  %ArrayBufferExplicit_ = getelementptr inbounds %"class.hermes::vm::RuntimeConfig::Builder", ptr %this1, i32 0, i32 13
  store i8 1, ptr %ArrayBufferExplicit_, align 4
  ret ptr %this1
}

; Function Attrs: mustprogress nounwind uwtable
define linkonce_odr hidden noundef nonnull align 8 dereferenceable(406) ptr @_ZN6hermes2vm13RuntimeConfig7Builder14withEnableEvalEb(ptr noundef nonnull align 8 dereferenceable(406) %this, i1 noundef zeroext %EnableEval) #1 comdat align 2 {
entry:
  %this.addr = alloca ptr, align 8
  %EnableEval.addr = alloca i8, align 1
  store ptr %this, ptr %this.addr, align 8
  %frombool = zext i1 %EnableEval to i8
  store i8 %frombool, ptr %EnableEval.addr, align 1
  %this1 = load ptr, ptr %this.addr, align 8
  %0 = load i8, ptr %EnableEval.addr, align 1
  %tobool = trunc i8 %0 to i1
  %config_ = getelementptr inbounds %"class.hermes::vm::RuntimeConfig::Builder", ptr %this1, i32 0, i32 0
  %EnableEval_ = getelementptr inbounds %"class.hermes::vm::RuntimeConfig", ptr %config_, i32 0, i32 4
  %frombool2 = zext i1 %tobool to i8
  store i8 %frombool2, ptr %EnableEval_, align 8
  %EnableEvalExplicit_ = getelementptr inbounds %"class.hermes::vm::RuntimeConfig::Builder", ptr %this1, i32 0, i32 5
  store i8 1, ptr %EnableEvalExplicit_, align 4
  ret ptr %this1
}

; Function Attrs: mustprogress uwtable
define linkonce_odr hidden void @_ZN6hermes2vm13RuntimeConfig7BuilderC2Ev(ptr noundef nonnull align 8 dereferenceable(406) %this) unnamed_addr #0 comdat align 2 {
entry:
  %this.addr = alloca ptr, align 8
  store ptr %this, ptr %this.addr, align 8
  %this1 = load ptr, ptr %this.addr, align 8
  %config_ = getelementptr inbounds %"class.hermes::vm::RuntimeConfig::Builder", ptr %this1, i32 0, i32 0
  call void @_ZN6hermes2vm13RuntimeConfigC2Ev(ptr noundef nonnull align 8 dereferenceable(373) %config_)
  %GCConfigExplicit_ = getelementptr inbounds %"class.hermes::vm::RuntimeConfig::Builder", ptr %this1, i32 0, i32 1
  store i8 0, ptr %GCConfigExplicit_, align 8
  %RegisterStackExplicit_ = getelementptr inbounds %"class.hermes::vm::RuntimeConfig::Builder", ptr %this1, i32 0, i32 2
  store i8 0, ptr %RegisterStackExplicit_, align 1
  %MaxNumRegistersExplicit_ = getelementptr inbounds %"class.hermes::vm::RuntimeConfig::Builder", ptr %this1, i32 0, i32 3
  store i8 0, ptr %MaxNumRegistersExplicit_, align 2
  %NativeStackGapExplicit_ = getelementptr inbounds %"class.hermes::vm::RuntimeConfig::Builder", ptr %this1, i32 0, i32 4
  store i8 0, ptr %NativeStackGapExplicit_, align 1
  %EnableEvalExplicit_ = getelementptr inbounds %"class.hermes::vm::RuntimeConfig::Builder", ptr %this1, i32 0, i32 5
  store i8 0, ptr %EnableEvalExplicit_, align 4
  %VerifyEvalIRExplicit_ = getelementptr inbounds %"class.hermes::vm::RuntimeConfig::Builder", ptr %this1, i32 0, i32 6
  store i8 0, ptr %VerifyEvalIRExplicit_, align 1
  %OptimizedEvalExplicit_ = getelementptr inbounds %"class.hermes::vm::RuntimeConfig::Builder", ptr %this1, i32 0, i32 7
  store i8 0, ptr %OptimizedEvalExplicit_, align 2
  %AsyncBreakCheckInEvalExplicit_ = getelementptr inbounds %"class.hermes::vm::RuntimeConfig::Builder", ptr %this1, i32 0, i32 8
  store i8 0, ptr %AsyncBreakCheckInEvalExplicit_, align 1
  %ES6PromiseExplicit_ = getelementptr inbounds %"class.hermes::vm::RuntimeConfig::Builder", ptr %this1, i32 0, i32 9
  store i8 0, ptr %ES6PromiseExplicit_, align 8
  %ES6ProxyExplicit_ = getelementptr inbounds %"class.hermes::vm::RuntimeConfig::Builder", ptr %this1, i32 0, i32 10
  store i8 0, ptr %ES6ProxyExplicit_, align 1
  %ES6ClassExplicit_ = getelementptr inbounds %"class.hermes::vm::RuntimeConfig::Builder", ptr %this1, i32 0, i32 11
  store i8 0, ptr %ES6ClassExplicit_, align 2
  %IntlExplicit_ = getelementptr inbounds %"class.hermes::vm::RuntimeConfig::Builder", ptr %this1, i32 0, i32 12
  store i8 0, ptr %IntlExplicit_, align 1
  %ArrayBufferExplicit_ = getelementptr inbounds %"class.hermes::vm::RuntimeConfig::Builder", ptr %this1, i32 0, i32 13
  store i8 0, ptr %ArrayBufferExplicit_, align 4
  %MicrotaskQueueExplicit_ = getelementptr inbounds %"class.hermes::vm::RuntimeConfig::Builder", ptr %this1, i32 0, i32 14
  store i8 0, ptr %MicrotaskQueueExplicit_, align 1
  %SynthTraceModeExplicit_ = getelementptr inbounds %"class.hermes::vm::RuntimeConfig::Builder", ptr %this1, i32 0, i32 15
  store i8 0, ptr %SynthTraceModeExplicit_, align 2
  %TraceScratchPathExplicit_ = getelementptr inbounds %"class.hermes::vm::RuntimeConfig::Builder", ptr %this1, i32 0, i32 16
  store i8 0, ptr %TraceScratchPathExplicit_, align 1
  %TraceResultPathExplicit_ = getelementptr inbounds %"class.hermes::vm::RuntimeConfig::Builder", ptr %this1, i32 0, i32 17
  store i8 0, ptr %TraceResultPathExplicit_, align 8
  %TraceRegisterCallbackExplicit_ = getelementptr inbounds %"class.hermes::vm::RuntimeConfig::Builder", ptr %this1, i32 0, i32 18
  store i8 0, ptr %TraceRegisterCallbackExplicit_, align 1
  %EnableSampledStatsExplicit_ = getelementptr inbounds %"class.hermes::vm::RuntimeConfig::Builder", ptr %this1, i32 0, i32 19
  store i8 0, ptr %EnableSampledStatsExplicit_, align 2
  %EnableSampleProfilingExplicit_ = getelementptr inbounds %"class.hermes::vm::RuntimeConfig::Builder", ptr %this1, i32 0, i32 20
  store i8 0, ptr %EnableSampleProfilingExplicit_, align 1
  %RandomizeMemoryLayoutExplicit_ = getelementptr inbounds %"class.hermes::vm::RuntimeConfig::Builder", ptr %this1, i32 0, i32 21
  store i8 0, ptr %RandomizeMemoryLayoutExplicit_, align 4
  %BytecodeWarmupPercentExplicit_ = getelementptr inbounds %"class.hermes::vm::RuntimeConfig::Builder", ptr %this1, i32 0, i32 22
  store i8 0, ptr %BytecodeWarmupPercentExplicit_, align 1
  %TrackIOExplicit_ = getelementptr inbounds %"class.hermes::vm::RuntimeConfig::Builder", ptr %this1, i32 0, i32 23
  store i8 0, ptr %TrackIOExplicit_, align 2
  %EnableHermesInternalExplicit_ = getelementptr inbounds %"class.hermes::vm::RuntimeConfig::Builder", ptr %this1, i32 0, i32 24
  store i8 0, ptr %EnableHermesInternalExplicit_, align 1
  %EnableHermesInternalTestMethodsExplicit_ = getelementptr inbounds %"class.hermes::vm::RuntimeConfig::Builder", ptr %this1, i32 0, i32 25
  store i8 0, ptr %EnableHermesInternalTestMethodsExplicit_, align 8
  %CompilationModeExplicit_ = getelementptr inbounds %"class.hermes::vm::RuntimeConfig::Builder", ptr %this1, i32 0, i32 26
  store i8 0, ptr %CompilationModeExplicit_, align 1
  %EnableGeneratorExplicit_ = getelementptr inbounds %"class.hermes::vm::RuntimeConfig::Builder", ptr %this1, i32 0, i32 27
  store i8 0, ptr %EnableGeneratorExplicit_, align 2
  %CrashMgrExplicit_ = getelementptr inbounds %"class.hermes::vm::RuntimeConfig::Builder", ptr %this1, i32 0, i32 28
  store i8 0, ptr %CrashMgrExplicit_, align 1
  %VMExperimentFlagsExplicit_ = getelementptr inbounds %"class.hermes::vm::RuntimeConfig::Builder", ptr %this1, i32 0, i32 29
  store i8 0, ptr %VMExperimentFlagsExplicit_, align 4
  %EnableBlockScopingExplicit_ = getelementptr inbounds %"class.hermes::vm::RuntimeConfig::Builder", ptr %this1, i32 0, i32 30
  store i8 0, ptr %EnableBlockScopingExplicit_, align 1
  ret void
}

; Function Attrs: mustprogress uwtable
define void @_ZN8facebook6hermes27hardenedHermesRuntimeConfigEv(ptr noalias sret(%"class.hermes::vm::RuntimeConfig") align 8 %agg.result) #0 personality ptr @__gxx_personality_v0 {
entry:
  %result.ptr = alloca ptr, align 8
  %config = alloca %"class.hermes::vm::RuntimeConfig::Builder", align 8
  %exn.slot = alloca ptr, align 8
  %ehselector.slot = alloca i32, align 4
  store ptr %agg.result, ptr %result.ptr, align 8
  call void @_ZN6hermes2vm13RuntimeConfig7BuilderC2Ev(ptr noundef nonnull align 8 dereferenceable(406) %config)
  %call = invoke noundef nonnull align 8 dereferenceable(406) ptr @_ZN6hermes2vm13RuntimeConfig7Builder14withEnableEvalEb(ptr noundef nonnull align 8 dereferenceable(406) %config, i1 noundef zeroext false)
          to label %invoke.cont unwind label %lpad

invoke.cont:                                      ; preds = %entry
  %call2 = invoke noundef nonnull align 8 dereferenceable(406) ptr @_ZN6hermes2vm13RuntimeConfig7Builder15withArrayBufferEb(ptr noundef nonnull align 8 dereferenceable(406) %config, i1 noundef zeroext false)
          to label %invoke.cont1 unwind label %lpad

invoke.cont1:                                     ; preds = %invoke.cont
  %call4 = invoke noundef nonnull align 8 dereferenceable(406) ptr @_ZN6hermes2vm13RuntimeConfig7Builder12withES6ProxyEb(ptr noundef nonnull align 8 dereferenceable(406) %config, i1 noundef zeroext false)
          to label %invoke.cont3 unwind label %lpad

invoke.cont3:                                     ; preds = %invoke.cont1
  %call6 = invoke noundef nonnull align 8 dereferenceable(406) ptr @_ZN6hermes2vm13RuntimeConfig7Builder24withEnableHermesInternalEb(ptr noundef nonnull align 8 dereferenceable(406) %config, i1 noundef zeroext false)
          to label %invoke.cont5 unwind label %lpad

invoke.cont5:                                     ; preds = %invoke.cont3
  %call8 = invoke noundef nonnull align 8 dereferenceable(406) ptr @_ZN6hermes2vm13RuntimeConfig7Builder35withEnableHermesInternalTestMethodsEb(ptr noundef nonnull align 8 dereferenceable(406) %config, i1 noundef zeroext false)
          to label %invoke.cont7 unwind label %lpad

invoke.cont7:                                     ; preds = %invoke.cont5
  %call10 = invoke noundef nonnull align 8 dereferenceable(406) ptr @_ZN6hermes2vm13RuntimeConfig7Builder25withRandomizeMemoryLayoutEb(ptr noundef nonnull align 8 dereferenceable(406) %config, i1 noundef zeroext true)
          to label %invoke.cont9 unwind label %lpad

invoke.cont9:                                     ; preds = %invoke.cont7
  %call12 = invoke noundef nonnull align 8 dereferenceable(406) ptr @_ZN6hermes2vm13RuntimeConfig7Builder25withAsyncBreakCheckInEvalEb(ptr noundef nonnull align 8 dereferenceable(406) %config, i1 noundef zeroext true)
          to label %invoke.cont11 unwind label %lpad

invoke.cont11:                                    ; preds = %invoke.cont9
  invoke void @_ZN6hermes2vm13RuntimeConfig7Builder5buildEv(ptr sret(%"class.hermes::vm::RuntimeConfig") align 8 %agg.result, ptr noundef nonnull align 8 dereferenceable(406) %config)
          to label %invoke.cont13 unwind label %lpad

invoke.cont13:                                    ; preds = %invoke.cont11
  call void @_ZN6hermes2vm13RuntimeConfig7BuilderD2Ev(ptr noundef nonnull align 8 dereferenceable(406) %config) #19
  ret void

lpad:                                             ; preds = %invoke.cont11, %invoke.cont9, %invoke.cont7, %invoke.cont5, %invoke.cont3, %invoke.cont1, %invoke.cont, %entry
  %0 = landingpad { ptr, i32 }
          cleanup
  %1 = extractvalue { ptr, i32 } %0, 0
  store ptr %1, ptr %exn.slot, align 8
  %2 = extractvalue { ptr, i32 } %0, 1
  store i32 %2, ptr %ehselector.slot, align 4
  call void @_ZN6hermes2vm13RuntimeConfig7BuilderD2Ev(ptr noundef nonnull align 8 dereferenceable(406) %config) #19
  br label %eh.resume

eh.resume:                                        ; preds = %lpad
  %exn = load ptr, ptr %exn.slot, align 8
  %sel = load i32, ptr %ehselector.slot, align 4
  %lpad.val = insertvalue { ptr, i32 } poison, ptr %exn, 0
  %lpad.val14 = insertvalue { ptr, i32 } %lpad.val, i32 %sel, 1
  resume { ptr, i32 } %lpad.val14
}