; Function Attrs: mustprogress uwtable
define void @_ZN8facebook6hermes27hardenedHermesRuntimeConfigEv(ptr noalias sret(%"class.hermes::vm::RuntimeConfig") align 8 %agg.result) local_unnamed_addr #0 personality ptr @__gxx_personality_v0 {
entry:
  %config = alloca %"class.hermes::vm::RuntimeConfig::Builder", align 8
  call void @_ZN6hermes2vm13RuntimeConfigC2Ev(ptr noundef nonnull align 8 dereferenceable(373) %config)
  %GCConfigExplicit_.i = getelementptr inbounds i8, ptr %config, i64 376
  call void @llvm.memset.p0.i64(ptr noundef nonnull align 8 dereferenceable(30) %GCConfigExplicit_.i, i8 0, i64 30, i1 false)
  %EnableEval_.i = getelementptr inbounds i8, ptr %config, i64 216
  store i8 0, ptr %EnableEval_.i, align 8
  %EnableEvalExplicit_.i = getelementptr inbounds i8, ptr %config, i64 380
  store i8 1, ptr %EnableEvalExplicit_.i, align 4
  %ArrayBuffer_.i = getelementptr inbounds i8, ptr %config, i64 224
  store i8 0, ptr %ArrayBuffer_.i, align 8
  %ArrayBufferExplicit_.i = getelementptr inbounds i8, ptr %config, i64 388
  store i8 1, ptr %ArrayBufferExplicit_.i, align 4
  %ES6Proxy_.i = getelementptr inbounds i8, ptr %config, i64 221
  store i8 0, ptr %ES6Proxy_.i, align 1
  %ES6ProxyExplicit_.i = getelementptr inbounds i8, ptr %config, i64 385
  store i8 1, ptr %ES6ProxyExplicit_.i, align 1
  %EnableHermesInternal_.i = getelementptr inbounds i8, ptr %config, i64 337
  store i8 0, ptr %EnableHermesInternal_.i, align 1
  %EnableHermesInternalExplicit_.i = getelementptr inbounds i8, ptr %config, i64 399
  store i8 1, ptr %EnableHermesInternalExplicit_.i, align 1
  %EnableHermesInternalTestMethods_.i = getelementptr inbounds i8, ptr %config, i64 338
  store i8 0, ptr %EnableHermesInternalTestMethods_.i, align 2
  %EnableHermesInternalTestMethodsExplicit_.i = getelementptr inbounds i8, ptr %config, i64 400
  store i8 1, ptr %EnableHermesInternalTestMethodsExplicit_.i, align 8
  %RandomizeMemoryLayout_.i = getelementptr inbounds i8, ptr %config, i64 330
  store i8 1, ptr %RandomizeMemoryLayout_.i, align 2
  %RandomizeMemoryLayoutExplicit_.i = getelementptr inbounds i8, ptr %config, i64 396
  store i8 1, ptr %RandomizeMemoryLayoutExplicit_.i, align 4
  %AsyncBreakCheckInEval_.i = getelementptr inbounds i8, ptr %config, i64 219
  store i8 1, ptr %AsyncBreakCheckInEval_.i, align 1
  %AsyncBreakCheckInEvalExplicit_.i = getelementptr inbounds i8, ptr %config, i64 383
  store i8 1, ptr %AsyncBreakCheckInEvalExplicit_.i, align 1
  invoke void @_ZN6hermes2vm13RuntimeConfigC2ERKS1_(ptr noundef nonnull align 8 dereferenceable(373) %agg.result, ptr noundef nonnull align 8 dereferenceable(373) %config)
          to label %invoke.cont13 unwind label %lpad

invoke.cont13:                                    ; preds = %entry
  call void @_ZN6hermes2vm13RuntimeConfigD2Ev(ptr noundef nonnull align 8 dereferenceable(373) %config) #37
  ret void

lpad:                                             ; preds = %entry
  %0 = landingpad { ptr, i32 }
          cleanup
  call void @_ZN6hermes2vm13RuntimeConfigD2Ev(ptr noundef nonnull align 8 dereferenceable(373) %config) #37
  resume { ptr, i32 } %0
}